target datalayout = "e-m:e-p270:32:32-p271:32:32-p272:64:64-i64:64-i128:128-f80:128-n8:16:32:64-S128"
target triple = "x86_64-pc-linux-gnu"

; Function Attrs: mustprogress nounwind uwtable
define internal void @_ZN4Luau19EqSatSimplificationL16deleteSimplifierEPNS0_10SimplifierE(ptr noundef %0) #5 {
  %2 = alloca ptr, align 8
  store ptr %0, ptr %2, align 8, !tbaa !533
  %3 = load ptr, ptr %2, align 8, !tbaa !533
  %4 = icmp eq ptr %3, null
  br i1 %4, label %6, label %5

5:                                                ; preds = %1
  call void @_ZN4Luau19EqSatSimplification10SimplifierD2Ev(ptr noundef nonnull align 8 dereferenceable(376) %3) #4
  call void @_ZdlPvm(ptr noundef %3, i64 noundef 376) #30
  br label %6

6:                                                ; preds = %5, %1
  ret void
}