; Function Attrs: mustprogress nounwind uwtable
define internal void @_ZN4Luau19EqSatSimplificationL16deleteSimplifierEPNS0_10SimplifierE(ptr noundef %0) #12 {
  %2 = icmp eq ptr %0, null
  br i1 %2, label %4, label %3

3:                                                ; preds = %1
  tail call void @_ZN4Luau19EqSatSimplification10SimplifierD2Ev(ptr noundef nonnull align 8 dereferenceable(376) %0) #37
  tail call void @_ZdlPvm(ptr noundef nonnull %0, i64 noundef 376) #36
  br label %4

4:                                                ; preds = %3, %1
  ret void
}